target datalayout = "e-m:e-p270:32:32-p271:32:32-p272:64:64-i64:64-i128:128-f80:128-n8:16:32:64-S128"
target triple = "x86_64-pc-linux-gnu"

; Function Attrs: nounwind uwtable
define internal void @pred8x8_horizontal_14_c(ptr noundef %0, i64 noundef %1) #1 {
  %3 = alloca ptr, align 8
  %4 = alloca i64, align 8
  %5 = alloca i32, align 4
  %6 = alloca ptr, align 8
  %7 = alloca i64, align 8
  store ptr %0, ptr %3, align 8, !tbaa !12
  store i64 %1, ptr %4, align 8, !tbaa !14
  call void @llvm.lifetime.start.p0(i64 4, ptr %5) #9
  call void @llvm.lifetime.start.p0(i64 8, ptr %6) #9
  %8 = load ptr, ptr %3, align 8, !tbaa !12
  store ptr %8, ptr %6, align 8, !tbaa !16
  %9 = load i64, ptr %4, align 8, !tbaa !14
  %10 = ashr i64 %9, 1
  store i64 %10, ptr %4, align 8, !tbaa !14
  store i32 0, ptr %5, align 4, !tbaa !9
  br label %11

11:                                               ; preds = %41, %2
  %12 = load i32, ptr %5, align 4, !tbaa !9
  %13 = icmp slt i32 %12, 8
  br i1 %13, label %14, label %44

14:                                               ; preds = %11
  call void @llvm.lifetime.start.p0(i64 8, ptr %7) #9
  %15 = load ptr, ptr %6, align 8, !tbaa !16
  %16 = load i32, ptr %5, align 4, !tbaa !9
  %17 = sext i32 %16 to i64
  %18 = load i64, ptr %4, align 8, !tbaa !14
  %19 = mul nsw i64 %17, %18
  %20 = add nsw i64 -1, %19
  %21 = getelementptr inbounds i16, ptr %15, i64 %20
  %22 = load i16, ptr %21, align 2, !tbaa !19
  %23 = zext i16 %22 to i64
  %24 = mul i64 %23, 281479271743489
  store i64 %24, ptr %7, align 8, !tbaa !14
  %25 = load i64, ptr %7, align 8, !tbaa !14
  %26 = load ptr, ptr %6, align 8, !tbaa !16
  %27 = load i32, ptr %5, align 4, !tbaa !9
  %28 = sext i32 %27 to i64
  %29 = load i64, ptr %4, align 8, !tbaa !14
  %30 = mul nsw i64 %28, %29
  %31 = getelementptr inbounds i16, ptr %26, i64 %30
  %32 = getelementptr inbounds i64, ptr %31, i64 0
  store i64 %25, ptr %32, align 8, !tbaa !18
  %33 = load i64, ptr %7, align 8, !tbaa !14
  %34 = load ptr, ptr %6, align 8, !tbaa !16
  %35 = load i32, ptr %5, align 4, !tbaa !9
  %36 = sext i32 %35 to i64
  %37 = load i64, ptr %4, align 8, !tbaa !14
  %38 = mul nsw i64 %36, %37
  %39 = getelementptr inbounds i16, ptr %34, i64 %38
  %40 = getelementptr inbounds i64, ptr %39, i64 1
  store i64 %33, ptr %40, align 8, !tbaa !18
  call void @llvm.lifetime.end.p0(i64 8, ptr %7) #9
  br label %41

41:                                               ; preds = %14
  %42 = load i32, ptr %5, align 4, !tbaa !9
  %43 = add nsw i32 %42, 1
  store i32 %43, ptr %5, align 4, !tbaa !9
  br label %11, !llvm.loop !195

44:                                               ; preds = %11
  call void @llvm.lifetime.end.p0(i64 8, ptr %6) #9
  call void @llvm.lifetime.end.p0(i64 4, ptr %5) #9
  ret void
}