; Function Attrs: nofree norecurse nosync nounwind memory(argmem: readwrite) uwtable
define internal void @pred8x8_horizontal_14_c(ptr noundef captures(none) %0, i64 noundef %1) #3 {
  %3 = ashr i64 %1, 1
  br label %4

4:                                                ; preds = %2, %4
  %indvars.iv = phi i64 [ 0, %2 ], [ %indvars.iv.next, %4 ]
  %5 = mul nsw i64 %3, %indvars.iv
  %6 = getelementptr i16, ptr %0, i64 %5
  %7 = getelementptr i8, ptr %6, i64 -2
  %8 = load i16, ptr %7, align 2, !tbaa !9
  %9 = zext i16 %8 to i64
  %10 = mul nuw i64 %9, 281479271743489
  store i64 %10, ptr %6, align 8, !tbaa !8
  %11 = getelementptr inbounds nuw i8, ptr %6, i64 8
  store i64 %10, ptr %11, align 8, !tbaa !8
  %indvars.iv.next = add nuw nsw i64 %indvars.iv, 1
  %exitcond.not = icmp eq i64 %indvars.iv.next, 8
  br i1 %exitcond.not, label %12, label %4, !llvm.loop !194

12:                                               ; preds = %4
  ret void
}